; ModuleID = 'source-C-CXX/15/1178.c'
source_filename = "source-C-CXX/15/1178.c"
target datalayout = "e-m:e-p270:32:32-p271:32:32-p272:64:64-i64:64-f80:128-n8:16:32:64-S128"
target triple = "x86_64-pc-linux-gnu"

@.str = private unnamed_addr constant [3 x i8] c"%d\00", align 1
@.str.1 = private unnamed_addr constant [12 x i8] c"%d%d%d%d%d\0A\00", align 1
@.str.2 = private unnamed_addr constant [10 x i8] c"%d%d%d%d\0A\00", align 1
@.str.3 = private unnamed_addr constant [8 x i8] c"%d%d%d\0A\00", align 1
@.str.4 = private unnamed_addr constant [6 x i8] c"%d%d\0A\00", align 1
@.str.5 = private unnamed_addr constant [4 x i8] c"%d\0A\00", align 1

; Function Attrs: nofree nounwind sspstrong uwtable
define dso_local i32 @main() local_unnamed_addr #0 {
  %1 = alloca i32, align 4
  %2 = bitcast i32* %1 to i8*
  call void @llvm.lifetime.start.p0i8(i64 4, i8* nonnull %2) #3
  %3 = call i32 (i8*, ...) @__isoc99_scanf(i8* getelementptr inbounds ([3 x i8], [3 x i8]* @.str, i64 0, i64 0), i32* nonnull %1)
  %4 = load i32, i32* %1, align 4, !tbaa !5
  %5 = icmp sgt i32 %4, 9999
  br i1 %5, label %12, label %6

6:                                                ; preds = %0
  %7 = icmp sgt i32 %4, 999
  br i1 %7, label %26, label %8

8:                                                ; preds = %6
  %9 = icmp sgt i32 %4, 99
  br i1 %9, label %43, label %10

10:                                               ; preds = %8
  %11 = icmp sgt i32 %4, 9
  br i1 %11, label %55, label %62

12:                                               ; preds = %0
  %13 = udiv i32 %4, 10000
  %14 = mul nsw i32 %13, -10000
  %15 = add nsw i32 %14, %4
  %16 = sdiv i32 %15, 1000
  %17 = mul nsw i32 %16, -1000
  %18 = add i32 %17, %15
  %19 = sdiv i32 %18, 100
  %20 = mul nsw i32 %19, -100
  %21 = add i32 %20, %18
  %22 = sdiv i32 %21, 10
  %23 = mul nsw i32 %22, -10
  %24 = add i32 %23, %21
  %25 = call i32 (i8*, ...) @printf(i8* nonnull dereferenceable(1) getelementptr inbounds ([12 x i8], [12 x i8]* @.str.1, i64 0, i64 0), i32 %24, i32 %22, i32 %19, i32 %16, i32 %13)
  br label %64

26:                                               ; preds = %6
  %27 = trunc i32 %4 to i16
  %28 = udiv i16 %27, 1000
  %29 = zext i16 %28 to i32
  %30 = mul nsw i32 %29, -1000
  %31 = add nsw i32 %30, %4
  %32 = trunc i32 %31 to i16
  %33 = sdiv i16 %32, 100
  %34 = sext i16 %33 to i32
  %35 = mul nsw i32 %34, -100
  %36 = add nsw i32 %35, %31
  %37 = trunc i32 %36 to i16
  %38 = sdiv i16 %37, 10
  %39 = sext i16 %38 to i32
  %40 = mul nsw i32 %39, -10
  %41 = add nsw i32 %40, %36
  %42 = call i32 (i8*, ...) @printf(i8* nonnull dereferenceable(1) getelementptr inbounds ([10 x i8], [10 x i8]* @.str.2, i64 0, i64 0), i32 %41, i32 %39, i32 %34, i32 %29)
  br label %64

43:                                               ; preds = %8
  %44 = trunc i32 %4 to i16
  %45 = udiv i16 %44, 100
  %46 = zext i16 %45 to i32
  %47 = mul nsw i32 %46, -100
  %48 = add nsw i32 %47, %4
  %49 = trunc i32 %48 to i16
  %50 = sdiv i16 %49, 10
  %51 = sext i16 %50 to i32
  %52 = mul nsw i32 %51, -10
  %53 = add nsw i32 %52, %48
  %54 = call i32 (i8*, ...) @printf(i8* nonnull dereferenceable(1) getelementptr inbounds ([8 x i8], [8 x i8]* @.str.3, i64 0, i64 0), i32 %53, i32 %51, i32 %46)
  br label %64

55:                                               ; preds = %10
  %56 = trunc i32 %4 to i8
  %57 = udiv i8 %56, 10
  %58 = zext i8 %57 to i32
  %59 = mul nsw i32 %58, -10
  %60 = add nsw i32 %59, %4
  %61 = call i32 (i8*, ...) @printf(i8* nonnull dereferenceable(1) getelementptr inbounds ([6 x i8], [6 x i8]* @.str.4, i64 0, i64 0), i32 %60, i32 %58)
  br label %64

62:                                               ; preds = %10
  %63 = call i32 (i8*, ...) @printf(i8* nonnull dereferenceable(1) getelementptr inbounds ([4 x i8], [4 x i8]* @.str.5, i64 0, i64 0), i32 %4)
  br label %64

64:                                               ; preds = %62, %55, %43, %26, %12
  call void @llvm.lifetime.end.p0i8(i64 4, i8* nonnull %2) #3
  ret i32 0
}

; Function Attrs: argmemonly mustprogress nofree nosync nounwind willreturn
declare void @llvm.lifetime.start.p0i8(i64 immarg, i8* nocapture) #1

; Function Attrs: nofree nounwind
declare noundef i32 @__isoc99_scanf(i8* nocapture noundef readonly, ...) local_unnamed_addr #2

; Function Attrs: nofree nounwind
declare noundef i32 @printf(i8* nocapture noundef readonly, ...) local_unnamed_addr #2

; Function Attrs: argmemonly mustprogress nofree nosync nounwind willreturn
declare void @llvm.lifetime.end.p0i8(i64 immarg, i8* nocapture) #1


!llvm.module.flags = !{!0, !1, !2, !3}
!llvm.ident = !{!4}

!0 = !{i32 1, !"wchar_size", i32 4}
!1 = !{i32 7, !"PIC Level", i32 2}
!2 = !{i32 7, !"PIE Level", i32 2}
!3 = !{i32 7, !"uwtable", i32 1}
!4 = !{!"clang version 13.0.0"}
!5 = !{!6, !6, i64 0}
!6 = !{!"int", !7, i64 0}
!7 = !{!"omnipotent char", !8, i64 0}
!8 = !{!"Simple C/C++ TBAA"}
